; Function Attrs: nounwind uwtable
define dso_local i32 @reftable_stack_reload(ptr noundef captures(none) %0) local_unnamed_addr #0 {
  %2 = tail call fastcc i32 @stack_uptodate(ptr noundef %0)
  %3 = icmp sgt i32 %2, 0
  br i1 %3, label %4, label %6

4:                                                ; preds = %1
  %5 = tail call fastcc i32 @reftable_stack_reload_maybe_reuse(ptr noundef %0, i32 noundef 1)
  br label %6

6:                                                ; preds = %1, %4
  %.0 = phi i32 [ %5, %4 ], [ %2, %1 ]
  ret i32 %.0
}